target datalayout = "e-m:e-p270:32:32-p271:32:32-p272:64:64-i64:64-i128:128-f80:128-n8:16:32:64-S128"
target triple = "x86_64-pc-linux-gnu"

%struct.Curl_easy = type { i32, i64, i64, ptr, %struct.Curl_llist_node, %struct.Curl_llist_node, i32, i32, %struct.Curl_message, %struct.easy_pollset, %struct.Names, ptr, ptr, ptr, ptr, %struct.SingleRequest, %struct.UserDefined, ptr, ptr, ptr, %struct.Progress, %struct.UrlState, ptr, %struct.PureInfo, %struct.curl_tlssessioninfo }
%struct.Curl_llist_node = type { ptr, ptr, ptr, ptr }
%struct.Curl_message = type { %struct.Curl_llist_node, %struct.CURLMsg }
%struct.CURLMsg = type { i32, ptr, %union.anon }
%union.anon = type { ptr }
%struct.easy_pollset = type { [5 x i32], i32, [5 x i8] }
%struct.Names = type { ptr, i32 }
%struct.SingleRequest = type <{ i64, i64, i64, i64, %struct.curltime, i32, i32, i32, i32, i64, i32, i32, i8, i8, [2 x i8], i32, ptr, ptr, %struct.bufq, i64, i64, ptr, ptr, %union.anon.0, ptr, i8, i32, [3 x i8] }>
%struct.curltime = type { i64, i32 }
%struct.bufq = type { ptr, ptr, ptr, ptr, i64, i64, i64, i32 }
%union.anon.0 = type { ptr }
%struct.UserDefined = type <{ ptr, ptr, ptr, ptr, ptr, ptr, i64, i64, i64, ptr, ptr, i64, ptr, ptr, ptr, ptr, ptr, ptr, ptr, ptr, ptr, ptr, ptr, ptr, ptr, ptr, ptr, ptr, ptr, ptr, ptr, ptr, ptr, ptr, ptr, i64, i64, i64, i64, i64, i64, i64, i64, i64, ptr, ptr, %struct.curl_mimepart, ptr, ptr, ptr, i64, %struct.ssl_config_data, %struct.ssl_config_data, ptr, i16, i8, i8, %struct.ssl_general_config, i32, i32, i32, [4 x i8], ptr, ptr, i64, i32, i8, i8, i8, i8, ptr, ptr, ptr, i32, [4 x i8], [74 x ptr], [8 x ptr], i32, i32, i32, [4 x i8], ptr, i32, [4 x i8], ptr, ptr, ptr, ptr, ptr, i32, i32, i32, i32, i32, i32, i32, i32, i64, ptr, ptr, i64, ptr, i64, ptr, ptr, ptr, ptr, i32, i16, i16, i16, i8, i8, i8, i8, i8, i8, i8, i8, i64, [6 x i8] }>
%struct.curl_mimepart = type { ptr, ptr, i32, i32, ptr, ptr, ptr, ptr, ptr, ptr, ptr, ptr, ptr, ptr, ptr, i64, %struct.mime_state, ptr, %struct.mime_encoder_state, i64 }
%struct.mime_state = type { i32, ptr, i64 }
%struct.mime_encoder_state = type { i64, i64, i64, [256 x i8] }
%struct.ssl_config_data = type { %struct.ssl_primary_config, i64, ptr, ptr, ptr, ptr, ptr, ptr, ptr, i16 }
%struct.ssl_primary_config = type { ptr, ptr, ptr, ptr, ptr, ptr, ptr, ptr, ptr, ptr, ptr, ptr, ptr, ptr, i8, i32, i8, i8 }
%struct.ssl_general_config = type { i32 }
%struct.Progress = type { i64, %struct.pgrs_dir, %struct.pgrs_dir, i64, i64, i32, i32, i64, i64, i64, i64, i64, i64, i64, i64, i64, %struct.curltime, %struct.curltime, %struct.curltime, %struct.curltime, %struct.curltime, [6 x i64], [6 x %struct.curltime], i32, i8 }
%struct.pgrs_dir = type { i64, i64, i64, %struct.pgrs_measure }
%struct.pgrs_measure = type { %struct.curltime, i64 }
%struct.UrlState = type { %struct.curltime, i64, i64, %struct.dynbuf, ptr, i64, ptr, i32, i32, i32, ptr, i32, i64, i32, ptr, %struct.digestdata, %struct.digestdata, %struct.auth, %struct.auth, %struct.Curl_async, ptr, i8, %struct.curltime, %struct.Curl_tree, %struct.Curl_llist, [15 x %struct.time_node], ptr, ptr, i64, i64, i64, i64, [32 x i8], i64, ptr, ptr, ptr, %struct.urlpieces, ptr, ptr, ptr, ptr, ptr, i64, %struct.dynbuf, %struct.Curl_llist, [2 x %struct.curl_header], ptr, i32, ptr, ptr, %struct.store_netrc, %struct.dynamically_allocated_data, i8, i8, i8, i8, i32 }
%struct.digestdata = type { ptr, ptr, ptr, ptr, ptr, ptr, i32, i8, i8 }
%struct.auth = type { i64, i64, i64, i8 }
%struct.Curl_async = type { ptr, ptr, ptr, ptr, i32, i32, i8 }
%struct.Curl_tree = type { ptr, ptr, ptr, ptr, %struct.curltime, ptr }
%struct.time_node = type { %struct.Curl_llist_node, %struct.curltime, i32 }
%struct.urlpieces = type { ptr, ptr, ptr, ptr, ptr, ptr, ptr, ptr }
%struct.dynbuf = type { ptr, i64, i64, i64 }
%struct.Curl_llist = type { ptr, ptr, ptr, i64 }
%struct.curl_header = type { ptr, ptr, i64, i64, i32, ptr }
%struct.store_netrc = type { %struct.dynbuf, ptr, i8 }
%struct.dynamically_allocated_data = type { ptr, ptr, ptr, ptr, ptr, ptr, ptr, ptr, ptr, ptr, ptr, ptr, ptr, ptr }
%struct.PureInfo = type { i32, i32, i32, i64, i64, i64, i64, i64, i64, i64, ptr, ptr, i64, i32, %struct.ip_quadruple, i32, ptr, i32, %struct.curl_certinfo, i32, i8 }
%struct.ip_quadruple = type { [46 x i8], [46 x i8], i32, i32 }
%struct.curl_certinfo = type { i32, ptr }
%struct.curl_tlssessioninfo = type { i32, ptr }

@stdout = external global ptr, align 8
@stdin = external global ptr, align 8
@stderr = external global ptr, align 8
@.str = private unnamed_addr constant [35 x i8] c"/etc/ssl/certs/ca-certificates.crt\00", align 1
@.str.1 = private unnamed_addr constant [15 x i8] c"/etc/ssl/certs\00", align 1

; Function Attrs: nounwind uwtable
define hidden i32 @Curl_init_userdefined(ptr noundef %0) #0 {
  %2 = alloca i32, align 4
  %3 = alloca ptr, align 8
  %4 = alloca ptr, align 8
  %5 = alloca i32, align 4
  %6 = alloca i32, align 4
  store ptr %0, ptr %3, align 8, !tbaa !3
  call void @llvm.lifetime.start.p0(i64 8, ptr %4) #8
  %7 = load ptr, ptr %3, align 8, !tbaa !3
  %8 = getelementptr inbounds nuw %struct.Curl_easy, ptr %7, i32 0, i32 16
  store ptr %8, ptr %4, align 8, !tbaa !134
  call void @llvm.lifetime.start.p0(i64 4, ptr %5) #8
  store i32 0, ptr %5, align 4, !tbaa !8
  %9 = load ptr, ptr @stdout, align 8, !tbaa !136
  %10 = load ptr, ptr %4, align 8, !tbaa !134
  %11 = getelementptr inbounds nuw %struct.UserDefined, ptr %10, i32 0, i32 3
  store ptr %9, ptr %11, align 8, !tbaa !137
  %12 = load ptr, ptr @stdin, align 8, !tbaa !136
  %13 = load ptr, ptr %4, align 8, !tbaa !134
  %14 = getelementptr inbounds nuw %struct.UserDefined, ptr %13, i32 0, i32 4
  store ptr %12, ptr %14, align 8, !tbaa !138
  %15 = load ptr, ptr @stderr, align 8, !tbaa !136
  %16 = load ptr, ptr %4, align 8, !tbaa !134
  %17 = getelementptr inbounds nuw %struct.UserDefined, ptr %16, i32 0, i32 0
  store ptr %15, ptr %17, align 8, !tbaa !139
  %18 = load ptr, ptr %4, align 8, !tbaa !134
  %19 = getelementptr inbounds nuw %struct.UserDefined, ptr %18, i32 0, i32 12
  store ptr @fwrite, ptr %19, align 8, !tbaa !140
  %20 = load ptr, ptr %4, align 8, !tbaa !134
  %21 = getelementptr inbounds nuw %struct.UserDefined, ptr %20, i32 0, i32 15
  store ptr @fread, ptr %21, align 8, !tbaa !141
  %22 = load ptr, ptr %4, align 8, !tbaa !134
  %23 = getelementptr inbounds nuw %struct.UserDefined, ptr %22, i32 0, i32 119
  %24 = load i64, ptr %23, align 2
  %25 = and i64 %24, -17
  %26 = or i64 %25, 0
  store i64 %26, ptr %23, align 2
  %27 = load ptr, ptr %4, align 8, !tbaa !134
  %28 = getelementptr inbounds nuw %struct.UserDefined, ptr %27, i32 0, i32 28
  store ptr null, ptr %28, align 8, !tbaa !142
  %29 = load ptr, ptr %4, align 8, !tbaa !134
  %30 = getelementptr inbounds nuw %struct.UserDefined, ptr %29, i32 0, i32 38
  store i64 -1, ptr %30, align 8, !tbaa !143
  %31 = load ptr, ptr %4, align 8, !tbaa !134
  %32 = getelementptr inbounds nuw %struct.UserDefined, ptr %31, i32 0, i32 11
  store i64 -1, ptr %32, align 8, !tbaa !144
  %33 = load ptr, ptr %4, align 8, !tbaa !134
  %34 = getelementptr inbounds nuw %struct.UserDefined, ptr %33, i32 0, i32 8
  store i64 30, ptr %34, align 8, !tbaa !145
  %35 = load ptr, ptr %4, align 8, !tbaa !134
  %36 = getelementptr inbounds nuw %struct.UserDefined, ptr %35, i32 0, i32 116
  store i8 0, ptr %36, align 1, !tbaa !146
  %37 = load ptr, ptr %4, align 8, !tbaa !134
  %38 = getelementptr inbounds nuw %struct.UserDefined, ptr %37, i32 0, i32 82
  store i32 1, ptr %38, align 8, !tbaa !147
  %39 = load ptr, ptr %4, align 8, !tbaa !134
  %40 = getelementptr inbounds nuw %struct.UserDefined, ptr %39, i32 0, i32 119
  %41 = load i64, ptr %40, align 2
  %42 = and i64 %41, -65537
  %43 = or i64 %42, 65536
  store i64 %43, ptr %40, align 2
  %44 = load ptr, ptr %4, align 8, !tbaa !134
  %45 = getelementptr inbounds nuw %struct.UserDefined, ptr %44, i32 0, i32 119
  %46 = load i64, ptr %45, align 2
  %47 = and i64 %46, -131073
  %48 = or i64 %47, 131072
  store i64 %48, ptr %45, align 2
  %49 = load ptr, ptr %4, align 8, !tbaa !134
  %50 = getelementptr inbounds nuw %struct.UserDefined, ptr %49, i32 0, i32 119
  %51 = load i64, ptr %50, align 2
  %52 = and i64 %51, -262145
  %53 = or i64 %52, 0
  store i64 %53, ptr %50, align 2
  %54 = load ptr, ptr %4, align 8, !tbaa !134
  %55 = getelementptr inbounds nuw %struct.UserDefined, ptr %54, i32 0, i32 66
  store i8 1, ptr %55, align 4, !tbaa !148
  %56 = load ptr, ptr %4, align 8, !tbaa !134
  %57 = getelementptr inbounds nuw %struct.UserDefined, ptr %56, i32 0, i32 119
  %58 = load i64, ptr %57, align 2
  %59 = and i64 %58, -524289
  %60 = or i64 %59, 524288
  store i64 %60, ptr %57, align 2
  %61 = load ptr, ptr %4, align 8, !tbaa !134
  %62 = getelementptr inbounds nuw %struct.UserDefined, ptr %61, i32 0, i32 58
  store i32 60, ptr %62, align 8, !tbaa !149
  %63 = load ptr, ptr %4, align 8, !tbaa !134
  %64 = getelementptr inbounds nuw %struct.UserDefined, ptr %63, i32 0, i32 57
  %65 = getelementptr inbounds nuw %struct.ssl_general_config, ptr %64, i32 0, i32 0
  store i32 86400, ptr %65, align 4, !tbaa !150
  %66 = load ptr, ptr %4, align 8, !tbaa !134
  %67 = getelementptr inbounds nuw %struct.UserDefined, ptr %66, i32 0, i32 6
  store i64 1, ptr %67, align 8, !tbaa !151
  %68 = load ptr, ptr %4, align 8, !tbaa !134
  %69 = getelementptr inbounds nuw %struct.UserDefined, ptr %68, i32 0, i32 54
  store i16 0, ptr %69, align 8, !tbaa !152
  %70 = load ptr, ptr %4, align 8, !tbaa !134
  %71 = getelementptr inbounds nuw %struct.UserDefined, ptr %70, i32 0, i32 55
  store i8 0, ptr %71, align 2, !tbaa !153
  %72 = load ptr, ptr %4, align 8, !tbaa !134
  %73 = getelementptr inbounds nuw %struct.UserDefined, ptr %72, i32 0, i32 7
  store i64 1, ptr %73, align 8, !tbaa !154
  %74 = load ptr, ptr %4, align 8, !tbaa !134
  %75 = getelementptr inbounds nuw %struct.UserDefined, ptr %74, i32 0, i32 56
  store i8 5, ptr %75, align 1, !tbaa !155
  %76 = load ptr, ptr %4, align 8, !tbaa !134
  %77 = getelementptr inbounds nuw %struct.UserDefined, ptr %76, i32 0, i32 119
  %78 = load i64, ptr %77, align 2
  %79 = and i64 %78, -2097153
  %80 = or i64 %79, 2097152
  store i64 %80, ptr %77, align 2
  %81 = load ptr, ptr %4, align 8, !tbaa !134
  %82 = getelementptr inbounds nuw %struct.UserDefined, ptr %81, i32 0, i32 46
  call void @Curl_mime_initpart(ptr noundef %82)
  %83 = load ptr, ptr %3, align 8, !tbaa !3
  call void @Curl_ssl_easy_config_init(ptr noundef %83)
  %84 = load ptr, ptr %4, align 8, !tbaa !134
  %85 = getelementptr inbounds nuw %struct.UserDefined, ptr %84, i32 0, i32 119
  %86 = load i64, ptr %85, align 2
  %87 = and i64 %86, -9007199254740993
  %88 = or i64 %87, 9007199254740992
  store i64 %88, ptr %85, align 2
  %89 = load ptr, ptr %4, align 8, !tbaa !134
  %90 = getelementptr inbounds nuw %struct.UserDefined, ptr %89, i32 0, i32 119
  %91 = load i64, ptr %90, align 2
  %92 = and i64 %91, -4503599627370497
  %93 = or i64 %92, 4503599627370496
  store i64 %93, ptr %90, align 2
  %94 = load ptr, ptr %4, align 8, !tbaa !134
  %95 = getelementptr inbounds nuw %struct.UserDefined, ptr %94, i32 0, i32 73
  store i32 420, ptr %95, align 8, !tbaa !156
  %96 = load ptr, ptr %4, align 8, !tbaa !134
  %97 = getelementptr inbounds nuw %struct.UserDefined, ptr %96, i32 0, i32 78
  store i32 -1, ptr %97, align 4, !tbaa !157
  %98 = load ptr, ptr %4, align 8, !tbaa !134
  %99 = getelementptr inbounds nuw %struct.UserDefined, ptr %98, i32 0, i32 79
  store i32 15, ptr %99, align 8, !tbaa !158
  %100 = call i32 @Curl_ssl_backend()
  %101 = icmp ne i32 %100, 8
  br i1 %101, label %102, label %142

102:                                              ; preds = %1
  %103 = call i32 @Curl_ssl_backend()
  %104 = icmp ne i32 %103, 9
  br i1 %104, label %105, label %142

105:                                              ; preds = %102
  %106 = load ptr, ptr %4, align 8, !tbaa !134
  %107 = getelementptr inbounds nuw %struct.UserDefined, ptr %106, i32 0, i32 75
  %108 = getelementptr inbounds [74 x ptr], ptr %107, i64 0, i64 6
  %109 = call i32 @Curl_setstropt(ptr noundef %108, ptr noundef @.str)
  store i32 %109, ptr %5, align 4, !tbaa !8
  %110 = load i32, ptr %5, align 4, !tbaa !8
  %111 = icmp ne i32 %110, 0
  br i1 %111, label %112, label %114

112:                                              ; preds = %105
  %113 = load i32, ptr %5, align 4, !tbaa !8
  store i32 %113, ptr %2, align 4
  store i32 1, ptr %6, align 4
  br label %214

114:                                              ; preds = %105
  %115 = load ptr, ptr %4, align 8, !tbaa !134
  %116 = getelementptr inbounds nuw %struct.UserDefined, ptr %115, i32 0, i32 75
  %117 = getelementptr inbounds [74 x ptr], ptr %116, i64 0, i64 19
  %118 = call i32 @Curl_setstropt(ptr noundef %117, ptr noundef @.str)
  store i32 %118, ptr %5, align 4, !tbaa !8
  %119 = load i32, ptr %5, align 4, !tbaa !8
  %120 = icmp ne i32 %119, 0
  br i1 %120, label %121, label %123

121:                                              ; preds = %114
  %122 = load i32, ptr %5, align 4, !tbaa !8
  store i32 %122, ptr %2, align 4
  store i32 1, ptr %6, align 4
  br label %214

123:                                              ; preds = %114
  %124 = load ptr, ptr %4, align 8, !tbaa !134
  %125 = getelementptr inbounds nuw %struct.UserDefined, ptr %124, i32 0, i32 75
  %126 = getelementptr inbounds [74 x ptr], ptr %125, i64 0, i64 5
  %127 = call i32 @Curl_setstropt(ptr noundef %126, ptr noundef @.str.1)
  store i32 %127, ptr %5, align 4, !tbaa !8
  %128 = load i32, ptr %5, align 4, !tbaa !8
  %129 = icmp ne i32 %128, 0
  br i1 %129, label %130, label %132

130:                                              ; preds = %123
  %131 = load i32, ptr %5, align 4, !tbaa !8
  store i32 %131, ptr %2, align 4
  store i32 1, ptr %6, align 4
  br label %214

132:                                              ; preds = %123
  %133 = load ptr, ptr %4, align 8, !tbaa !134
  %134 = getelementptr inbounds nuw %struct.UserDefined, ptr %133, i32 0, i32 75
  %135 = getelementptr inbounds [74 x ptr], ptr %134, i64 0, i64 18
  %136 = call i32 @Curl_setstropt(ptr noundef %135, ptr noundef @.str.1)
  store i32 %136, ptr %5, align 4, !tbaa !8
  %137 = load i32, ptr %5, align 4, !tbaa !8
  %138 = icmp ne i32 %137, 0
  br i1 %138, label %139, label %141

139:                                              ; preds = %132
  %140 = load i32, ptr %5, align 4, !tbaa !8
  store i32 %140, ptr %2, align 4
  store i32 1, ptr %6, align 4
  br label %214

141:                                              ; preds = %132
  br label %142

142:                                              ; preds = %141, %102, %1
  %143 = load ptr, ptr %4, align 8, !tbaa !134
  %144 = getelementptr inbounds nuw %struct.UserDefined, ptr %143, i32 0, i32 119
  %145 = load i64, ptr %144, align 2
  %146 = and i64 %145, -1048577
  %147 = or i64 %146, 0
  store i64 %147, ptr %144, align 2
  %148 = load ptr, ptr %4, align 8, !tbaa !134
  %149 = getelementptr inbounds nuw %struct.UserDefined, ptr %148, i32 0, i32 84
  store ptr null, ptr %149, align 8, !tbaa !159
  %150 = load ptr, ptr %4, align 8, !tbaa !134
  %151 = getelementptr inbounds nuw %struct.UserDefined, ptr %150, i32 0, i32 85
  store ptr null, ptr %151, align 8, !tbaa !160
  %152 = load ptr, ptr %4, align 8, !tbaa !134
  %153 = getelementptr inbounds nuw %struct.UserDefined, ptr %152, i32 0, i32 86
  store ptr null, ptr %153, align 8, !tbaa !161
  %154 = load ptr, ptr %4, align 8, !tbaa !134
  %155 = getelementptr inbounds nuw %struct.UserDefined, ptr %154, i32 0, i32 119
  %156 = load i64, ptr %155, align 2
  %157 = and i64 %156, -2199023255553
  %158 = or i64 %157, 0
  store i64 %158, ptr %155, align 2
  %159 = load ptr, ptr %4, align 8, !tbaa !134
  %160 = getelementptr inbounds nuw %struct.UserDefined, ptr %159, i32 0, i32 95
  store i32 60, ptr %160, align 8, !tbaa !162
  %161 = load ptr, ptr %4, align 8, !tbaa !134
  %162 = getelementptr inbounds nuw %struct.UserDefined, ptr %161, i32 0, i32 94
  store i32 60, ptr %162, align 4, !tbaa !163
  %163 = load ptr, ptr %4, align 8, !tbaa !134
  %164 = getelementptr inbounds nuw %struct.UserDefined, ptr %163, i32 0, i32 96
  store i32 9, ptr %164, align 4, !tbaa !164
  %165 = load ptr, ptr %4, align 8, !tbaa !134
  %166 = getelementptr inbounds nuw %struct.UserDefined, ptr %165, i32 0, i32 119
  %167 = load i64, ptr %166, align 2
  %168 = and i64 %167, -4398046511105
  %169 = or i64 %168, 0
  store i64 %169, ptr %166, align 2
  %170 = load ptr, ptr %4, align 8, !tbaa !134
  %171 = getelementptr inbounds nuw %struct.UserDefined, ptr %170, i32 0, i32 119
  %172 = load i64, ptr %171, align 2
  %173 = and i64 %172, -34359738369
  %174 = or i64 %173, 34359738368
  store i64 %174, ptr %171, align 2
  %175 = load ptr, ptr %4, align 8, !tbaa !134
  %176 = getelementptr inbounds nuw %struct.UserDefined, ptr %175, i32 0, i32 119
  %177 = load i64, ptr %176, align 2
  %178 = and i64 %177, -8796093022209
  %179 = or i64 %178, 8796093022208
  store i64 %179, ptr %176, align 2
  %180 = load ptr, ptr %4, align 8, !tbaa !134
  %181 = getelementptr inbounds nuw %struct.UserDefined, ptr %180, i32 0, i32 97
  store i64 1000, ptr %181, align 8, !tbaa !165
  %182 = load ptr, ptr %4, align 8, !tbaa !134
  %183 = getelementptr inbounds nuw %struct.UserDefined, ptr %182, i32 0, i32 119
  %184 = load i64, ptr %183, align 2
  %185 = and i64 %184, -65
  %186 = or i64 %185, 64
  store i64 %186, ptr %183, align 2
  %187 = load ptr, ptr %4, align 8, !tbaa !134
  %188 = getelementptr inbounds nuw %struct.UserDefined, ptr %187, i32 0, i32 59
  store i32 16384, ptr %188, align 4, !tbaa !166
  %189 = load ptr, ptr %4, align 8, !tbaa !134
  %190 = getelementptr inbounds nuw %struct.UserDefined, ptr %189, i32 0, i32 60
  store i32 65536, ptr %190, align 8, !tbaa !167
  %191 = load ptr, ptr %4, align 8, !tbaa !134
  %192 = getelementptr inbounds nuw %struct.UserDefined, ptr %191, i32 0, i32 91
  store i32 200, ptr %192, align 8, !tbaa !168
  %193 = load ptr, ptr %4, align 8, !tbaa !134
  %194 = getelementptr inbounds nuw %struct.UserDefined, ptr %193, i32 0, i32 100
  store i64 60000, ptr %194, align 8, !tbaa !169
  %195 = load ptr, ptr %4, align 8, !tbaa !134
  %196 = getelementptr inbounds nuw %struct.UserDefined, ptr %195, i32 0, i32 107
  store i32 5, ptr %196, align 8, !tbaa !170
  %197 = load ptr, ptr %4, align 8, !tbaa !134
  %198 = getelementptr inbounds nuw %struct.UserDefined, ptr %197, i32 0, i32 35
  store i64 118, ptr %198, align 8, !tbaa !171
  %199 = load ptr, ptr %4, align 8, !tbaa !134
  %200 = getelementptr inbounds nuw %struct.UserDefined, ptr %199, i32 0, i32 36
  store i64 0, ptr %200, align 8, !tbaa !172
  %201 = load ptr, ptr %4, align 8, !tbaa !134
  %202 = getelementptr inbounds nuw %struct.UserDefined, ptr %201, i32 0, i32 119
  %203 = load i64, ptr %202, align 2
  %204 = and i64 %203, -36028797018963969
  %205 = or i64 %204, 0
  store i64 %205, ptr %202, align 2
  %206 = load ptr, ptr %4, align 8, !tbaa !134
  %207 = getelementptr inbounds nuw %struct.UserDefined, ptr %206, i32 0, i32 117
  store i8 2, ptr %207, align 8, !tbaa !173
  %208 = load ptr, ptr %4, align 8, !tbaa !134
  %209 = getelementptr inbounds nuw %struct.UserDefined, ptr %208, i32 0, i32 119
  %210 = load i64, ptr %209, align 2
  %211 = and i64 %210, -513
  %212 = or i64 %211, 0
  store i64 %212, ptr %209, align 2
  %213 = load i32, ptr %5, align 4, !tbaa !8
  store i32 %213, ptr %2, align 4
  store i32 1, ptr %6, align 4
  br label %214

214:                                              ; preds = %142, %139, %130, %121, %112
  call void @llvm.lifetime.end.p0(i64 4, ptr %5) #8
  call void @llvm.lifetime.end.p0(i64 8, ptr %4) #8
  %215 = load i32, ptr %2, align 4
  ret i32 %215
}