; Function Attrs: nounwind uwtable
define hidden i32 @Curl_init_userdefined(ptr noundef initializes((464, 472), (488, 504), (512, 536), (552, 568), (584, 592), (688, 696), (768, 776), (1712, 1724), (1764, 1765), (2480, 2484), (2655, 2656)) %0) local_unnamed_addr #0 {
  %2 = getelementptr inbounds nuw i8, ptr %0, i64 464
  %3 = load ptr, ptr @stdout, align 8, !tbaa !129
  %4 = getelementptr inbounds nuw i8, ptr %0, i64 488
  store ptr %3, ptr %4, align 8, !tbaa !130
  %5 = load ptr, ptr @stdin, align 8, !tbaa !129
  %6 = getelementptr inbounds nuw i8, ptr %0, i64 496
  store ptr %5, ptr %6, align 8, !tbaa !131
  %7 = load ptr, ptr @stderr, align 8, !tbaa !129
  store ptr %7, ptr %2, align 8, !tbaa !132
  %8 = getelementptr inbounds nuw i8, ptr %0, i64 560
  store ptr @fwrite, ptr %8, align 8, !tbaa !133
  %9 = getelementptr inbounds nuw i8, ptr %0, i64 584
  store ptr @fread, ptr %9, align 8, !tbaa !134
  %10 = getelementptr inbounds nuw i8, ptr %0, i64 2658
  %11 = load i64, ptr %10, align 2
  %12 = getelementptr inbounds nuw i8, ptr %0, i64 688
  store ptr null, ptr %12, align 8, !tbaa !135
  %13 = getelementptr inbounds nuw i8, ptr %0, i64 768
  store i64 -1, ptr %13, align 8, !tbaa !136
  %14 = getelementptr inbounds nuw i8, ptr %0, i64 552
  store i64 -1, ptr %14, align 8, !tbaa !137
  %15 = getelementptr inbounds nuw i8, ptr %0, i64 528
  store i64 30, ptr %15, align 8, !tbaa !138
  %16 = getelementptr inbounds nuw i8, ptr %0, i64 2655
  store i8 0, ptr %16, align 1, !tbaa !139
  %17 = getelementptr inbounds nuw i8, ptr %0, i64 2480
  store i32 1, ptr %17, align 8, !tbaa !140
  %18 = and i64 %11, -3080209
  %19 = getelementptr inbounds nuw i8, ptr %0, i64 1764
  store i8 1, ptr %19, align 4, !tbaa !141
  %20 = getelementptr inbounds nuw i8, ptr %0, i64 1720
  store i32 60, ptr %20, align 8, !tbaa !142
  %21 = getelementptr inbounds nuw i8, ptr %0, i64 1716
  store i32 86400, ptr %21, align 4, !tbaa !143
  %22 = getelementptr inbounds nuw i8, ptr %0, i64 512
  store i64 1, ptr %22, align 8, !tbaa !144
  %23 = getelementptr inbounds nuw i8, ptr %0, i64 1712
  store i16 0, ptr %23, align 8, !tbaa !145
  %24 = getelementptr inbounds nuw i8, ptr %0, i64 1714
  store i8 0, ptr %24, align 2, !tbaa !146
  %25 = getelementptr inbounds nuw i8, ptr %0, i64 520
  store i64 1, ptr %25, align 8, !tbaa !147
  %26 = getelementptr inbounds nuw i8, ptr %0, i64 1715
  store i8 5, ptr %26, align 1, !tbaa !148
  %27 = or disjoint i64 %18, 2818048
  store i64 %27, ptr %10, align 2
  %28 = getelementptr inbounds nuw i8, ptr %0, i64 832
  tail call void @Curl_mime_initpart(ptr noundef nonnull %28) #11
  tail call void @Curl_ssl_easy_config_init(ptr noundef %0) #11
  %29 = load i64, ptr %10, align 2
  %30 = or i64 %29, 13510798882111488
  store i64 %30, ptr %10, align 2
  %31 = getelementptr inbounds nuw i8, ptr %0, i64 1792
  store i32 420, ptr %31, align 8, !tbaa !149
  %32 = getelementptr inbounds nuw i8, ptr %0, i64 2460
  store i32 -1, ptr %32, align 4, !tbaa !150
  %33 = getelementptr inbounds nuw i8, ptr %0, i64 2464
  store i32 15, ptr %33, align 8, !tbaa !151
  %34 = tail call i32 @Curl_ssl_backend() #11
  %.not = icmp eq i32 %34, 8
  br i1 %.not, label %49, label %35

35:                                               ; preds = %1
  %36 = tail call i32 @Curl_ssl_backend() #11
  %.not74 = icmp eq i32 %36, 9
  br i1 %.not74, label %49, label %37

37:                                               ; preds = %35
  %38 = getelementptr inbounds nuw i8, ptr %0, i64 1848
  %39 = tail call i32 @Curl_setstropt(ptr noundef nonnull %38, ptr noundef nonnull @.str) #11
  %.not75 = icmp eq i32 %39, 0
  br i1 %.not75, label %40, label %66

40:                                               ; preds = %37
  %41 = getelementptr inbounds nuw i8, ptr %0, i64 1952
  %42 = tail call i32 @Curl_setstropt(ptr noundef nonnull %41, ptr noundef nonnull @.str) #11
  %.not76 = icmp eq i32 %42, 0
  br i1 %.not76, label %43, label %66

43:                                               ; preds = %40
  %44 = getelementptr inbounds nuw i8, ptr %0, i64 1840
  %45 = tail call i32 @Curl_setstropt(ptr noundef nonnull %44, ptr noundef nonnull @.str.1) #11
  %.not77 = icmp eq i32 %45, 0
  br i1 %.not77, label %46, label %66

46:                                               ; preds = %43
  %47 = getelementptr inbounds nuw i8, ptr %0, i64 1944
  %48 = tail call i32 @Curl_setstropt(ptr noundef nonnull %47, ptr noundef nonnull @.str.1) #11
  %.not78 = icmp eq i32 %48, 0
  br i1 %.not78, label %49, label %66

49:                                               ; preds = %46, %35, %1
  %50 = load i64, ptr %10, align 2
  %51 = getelementptr inbounds nuw i8, ptr %0, i64 2488
  tail call void @llvm.memset.p0.i64(ptr noundef nonnull align 8 dereferenceable(24) %51, i8 0, i64 24, i1 false)
  %52 = getelementptr inbounds nuw i8, ptr %0, i64 2552
  store i32 60, ptr %52, align 8, !tbaa !152
  %53 = getelementptr inbounds nuw i8, ptr %0, i64 2548
  store i32 60, ptr %53, align 4, !tbaa !153
  %54 = getelementptr inbounds nuw i8, ptr %0, i64 2556
  store i32 9, ptr %54, align 4, !tbaa !154
  %55 = getelementptr inbounds nuw i8, ptr %0, i64 2560
  store i64 1000, ptr %55, align 8, !tbaa !155
  %56 = getelementptr inbounds nuw i8, ptr %0, i64 1724
  store i32 16384, ptr %56, align 4, !tbaa !156
  %57 = getelementptr inbounds nuw i8, ptr %0, i64 1728
  store i32 65536, ptr %57, align 8, !tbaa !157
  %58 = getelementptr inbounds nuw i8, ptr %0, i64 2536
  store i32 200, ptr %58, align 8, !tbaa !158
  %59 = getelementptr inbounds nuw i8, ptr %0, i64 2584
  store i64 60000, ptr %59, align 8, !tbaa !159
  %60 = getelementptr inbounds nuw i8, ptr %0, i64 2640
  store i32 5, ptr %60, align 8, !tbaa !160
  %61 = getelementptr inbounds nuw i8, ptr %0, i64 744
  store i64 118, ptr %61, align 8, !tbaa !161
  %62 = getelementptr inbounds nuw i8, ptr %0, i64 752
  store i64 0, ptr %62, align 8, !tbaa !162
  %63 = getelementptr inbounds nuw i8, ptr %0, i64 2656
  store i8 2, ptr %63, align 8, !tbaa !163
  %64 = and i64 %50, -36044224542540353
  %65 = or disjoint i64 %64, 8830452760640
  store i64 %65, ptr %10, align 2
  br label %66

66:                                               ; preds = %46, %43, %40, %37, %49
  %.069 = phi i32 [ 0, %49 ], [ %39, %37 ], [ %42, %40 ], [ %45, %43 ], [ %48, %46 ]
  ret i32 %.069
}